target datalayout = "e-m:e-p270:32:32-p271:32:32-p272:64:64-i64:64-i128:128-f80:128-n8:16:32:64-S128"
target triple = "x86_64-pc-linux-gnu"

%struct.pkey_blocking_generate_arg = type { ptr, ptr, i32, i8 }

; Function Attrs: nounwind sspstrong uwtable
define internal i32 @pkey_gen_cb(ptr noundef %0) #0 {
  %2 = alloca i32, align 4
  %3 = alloca ptr, align 8
  %4 = alloca ptr, align 8
  %5 = alloca i32, align 4
  %6 = alloca i32, align 4
  store ptr %0, ptr %3, align 8, !tbaa !50
  call void @llvm.lifetime.start.p0(i64 8, ptr %4) #19
  %7 = load ptr, ptr %3, align 8, !tbaa !50
  %8 = call ptr @EVP_PKEY_CTX_get_app_data(ptr noundef %7)
  store ptr %8, ptr %4, align 8, !tbaa !59
  call void @llvm.lifetime.start.p0(i64 4, ptr %5) #19
  %9 = load ptr, ptr %4, align 8, !tbaa !59
  %10 = getelementptr inbounds nuw %struct.pkey_blocking_generate_arg, ptr %9, i32 0, i32 3
  %11 = load i8, ptr %10, align 4
  %12 = and i8 %11, 1
  %13 = zext i8 %12 to i32
  %14 = icmp ne i32 %13, 0
  br i1 %14, label %15, label %26

15:                                               ; preds = %1
  %16 = load ptr, ptr %3, align 8, !tbaa !50
  %17 = ptrtoint ptr %16 to i64
  %18 = call i64 @rb_protect(ptr noundef @pkey_gen_cb_yield, i64 noundef %17, ptr noundef %5)
  %19 = load i32, ptr %5, align 4, !tbaa !14
  %20 = icmp ne i32 %19, 0
  br i1 %20, label %21, label %25

21:                                               ; preds = %15
  %22 = load i32, ptr %5, align 4, !tbaa !14
  %23 = load ptr, ptr %4, align 8, !tbaa !59
  %24 = getelementptr inbounds nuw %struct.pkey_blocking_generate_arg, ptr %23, i32 0, i32 2
  store i32 %22, ptr %24, align 8, !tbaa !56
  store i32 0, ptr %2, align 4
  store i32 1, ptr %6, align 4
  br label %51

25:                                               ; preds = %15
  br label %26

26:                                               ; preds = %25, %1
  %27 = load ptr, ptr %4, align 8, !tbaa !59
  %28 = getelementptr inbounds nuw %struct.pkey_blocking_generate_arg, ptr %27, i32 0, i32 3
  %29 = load i8, ptr %28, align 4
  %30 = lshr i8 %29, 2
  %31 = and i8 %30, 1
  %32 = zext i8 %31 to i32
  %33 = icmp ne i32 %32, 0
  br i1 %33, label %34, label %50

34:                                               ; preds = %26
  %35 = load ptr, ptr %4, align 8, !tbaa !59
  %36 = getelementptr inbounds nuw %struct.pkey_blocking_generate_arg, ptr %35, i32 0, i32 3
  %37 = load i8, ptr %36, align 4
  %38 = and i8 %37, -5
  %39 = or i8 %38, 0
  store i8 %39, ptr %36, align 4
  %40 = call ptr @rb_thread_call_with_gvl(ptr noundef @call_check_ints, ptr noundef null)
  %41 = ptrtoint ptr %40 to i64
  %42 = trunc i64 %41 to i32
  store i32 %42, ptr %5, align 4, !tbaa !14
  %43 = load i32, ptr %5, align 4, !tbaa !14
  %44 = icmp ne i32 %43, 0
  br i1 %44, label %45, label %49

45:                                               ; preds = %34
  %46 = load i32, ptr %5, align 4, !tbaa !14
  %47 = load ptr, ptr %4, align 8, !tbaa !59
  %48 = getelementptr inbounds nuw %struct.pkey_blocking_generate_arg, ptr %47, i32 0, i32 2
  store i32 %46, ptr %48, align 8, !tbaa !56
  store i32 0, ptr %2, align 4
  store i32 1, ptr %6, align 4
  br label %51

49:                                               ; preds = %34
  br label %50

50:                                               ; preds = %49, %26
  store i32 1, ptr %2, align 4
  store i32 1, ptr %6, align 4
  br label %51

51:                                               ; preds = %50, %45, %21
  call void @llvm.lifetime.end.p0(i64 4, ptr %5) #19
  call void @llvm.lifetime.end.p0(i64 8, ptr %4) #19
  %52 = load i32, ptr %2, align 4
  ret i32 %52
}