; Function Attrs: nounwind sspstrong uwtable
define internal range(i32 0, 2) i32 @pkey_gen_cb(ptr noundef %0) #0 {
  %2 = alloca i32, align 4
  %3 = tail call ptr @EVP_PKEY_CTX_get_app_data(ptr noundef %0) #8
  call void @llvm.lifetime.start.p0(i64 4, ptr nonnull %2) #8
  %4 = getelementptr inbounds nuw i8, ptr %3, i64 20
  %5 = load i8, ptr %4, align 4
  %6 = and i8 %5, 1
  %.not = icmp eq i8 %6, 0
  br i1 %.not, label %11, label %7

7:                                                ; preds = %1
  %8 = ptrtoint ptr %0 to i64
  %9 = call i64 @rb_protect(ptr noundef nonnull @pkey_gen_cb_yield, i64 noundef %8, ptr noundef nonnull %2) #8
  %10 = load i32, ptr %2, align 4, !tbaa !6
  %.not9 = icmp eq i32 %10, 0
  br i1 %.not9, label %._crit_edge, label %.sink.split

._crit_edge:                                      ; preds = %7
  %.pre = load i8, ptr %4, align 4
  br label %11

11:                                               ; preds = %._crit_edge, %1
  %12 = phi i8 [ %.pre, %._crit_edge ], [ %5, %1 ]
  %13 = and i8 %12, 4
  %.not10 = icmp eq i8 %13, 0
  br i1 %.not10, label %20, label %14

14:                                               ; preds = %11
  %15 = and i8 %12, -5
  store i8 %15, ptr %4, align 4
  %16 = call ptr @rb_thread_call_with_gvl(ptr noundef nonnull @call_check_ints, ptr noundef null) #8
  %17 = ptrtoint ptr %16 to i64
  %18 = trunc i64 %17 to i32
  %.not11 = icmp eq i32 %18, 0
  br i1 %.not11, label %20, label %.sink.split

.sink.split:                                      ; preds = %14, %7
  %.sink = phi i32 [ %10, %7 ], [ %18, %14 ]
  %19 = getelementptr inbounds nuw i8, ptr %3, i64 16
  store i32 %.sink, ptr %19, align 8, !tbaa !116
  br label %20

20:                                               ; preds = %.sink.split, %11, %14
  %.0 = phi i32 [ 1, %14 ], [ 1, %11 ], [ 0, %.sink.split ]
  call void @llvm.lifetime.end.p0(i64 4, ptr nonnull %2) #8
  ret i32 %.0
}